target datalayout = "e-m:e-p270:32:32-p271:32:32-p272:64:64-i64:64-i128:128-f80:128-n8:16:32:64-S128"
target triple = "x86_64-pc-linux-gnu"

%class.NFALUT = type { ptr, i32, double, i32, i32 }

; Function Attrs: inlinehint mustprogress nounwind uwtable
define linkonce_odr noundef double @_ZSt3powIdiEN9__gnu_cxx11__promote_2IT_T0_NS0_9__promoteIS2_Xsr3std12__is_integerIS2_EE7__valueEE6__typeENS4_IS3_Xsr3std12__is_integerIS3_EE7__valueEE6__typeEE6__typeES2_S3_(double noundef %0, i32 noundef %1) #10 comdat {
  %3 = alloca double, align 8
  %4 = alloca i32, align 4
  store double %0, ptr %3, align 8, !tbaa !10
  store i32 %1, ptr %4, align 4, !tbaa !8
  %5 = load double, ptr %3, align 8, !tbaa !10
  %6 = load i32, ptr %4, align 4, !tbaa !8
  %7 = sitofp i32 %6 to double
  %8 = call double @pow(double noundef %5, double noundef %7) #3, !tbaa !8
  ret double %8
}

; Function Attrs: mustprogress nounwind uwtable
define hidden noundef double @_ZN6NFALUT4CombEdd(double noundef %0, double noundef %1) #8 align 2 {
  %3 = alloca double, align 8
  %4 = alloca double, align 8
  %5 = alloca double, align 8
  %6 = alloca double, align 8
  %7 = alloca double, align 8
  store double %0, ptr %4, align 8, !tbaa !10
  store double %1, ptr %5, align 8, !tbaa !10
  %8 = load double, ptr %5, align 8, !tbaa !10
  %9 = load double, ptr %4, align 8, !tbaa !10
  %10 = fcmp ogt double %8, %9
  br i1 %10, label %11, label %12

11:                                               ; preds = %2
  store double 0.000000e+00, ptr %3, align 8
  br label %31

12:                                               ; preds = %2
  call void @llvm.lifetime.start.p0(i64 8, ptr %6) #3
  store double 1.000000e+00, ptr %6, align 8, !tbaa !10
  call void @llvm.lifetime.start.p0(i64 8, ptr %7) #3
  store double 1.000000e+00, ptr %7, align 8, !tbaa !10
  br label %13

13:                                               ; preds = %26, %12
  %14 = load double, ptr %7, align 8, !tbaa !10
  %15 = load double, ptr %5, align 8, !tbaa !10
  %16 = fcmp ole double %14, %15
  br i1 %16, label %18, label %17

17:                                               ; preds = %13
  call void @llvm.lifetime.end.p0(i64 8, ptr %7) #3
  br label %29

18:                                               ; preds = %13
  %19 = load double, ptr %4, align 8, !tbaa !10
  %20 = fadd double %19, -1.000000e+00
  store double %20, ptr %4, align 8, !tbaa !10
  %21 = load double, ptr %6, align 8, !tbaa !10
  %22 = fmul double %21, %19
  store double %22, ptr %6, align 8, !tbaa !10
  %23 = load double, ptr %7, align 8, !tbaa !10
  %24 = load double, ptr %6, align 8, !tbaa !10
  %25 = fdiv double %24, %23
  store double %25, ptr %6, align 8, !tbaa !10
  br label %26

26:                                               ; preds = %18
  %27 = load double, ptr %7, align 8, !tbaa !10
  %28 = fadd double %27, 1.000000e+00
  store double %28, ptr %7, align 8, !tbaa !10
  br label %13, !llvm.loop !23

29:                                               ; preds = %17
  %30 = load double, ptr %6, align 8, !tbaa !10
  store double %30, ptr %3, align 8
  call void @llvm.lifetime.end.p0(i64 8, ptr %6) #3
  br label %31

31:                                               ; preds = %29, %11
  %32 = load double, ptr %3, align 8
  ret double %32
}

; Function Attrs: mustprogress uwtable
define hidden noundef double @_ZN6NFALUT3nfaEii(ptr noundef nonnull align 8 dereferenceable(32) %0, i32 noundef %1, i32 noundef %2) #4 align 2 {
  %4 = alloca ptr, align 8
  %5 = alloca i32, align 4
  %6 = alloca i32, align 4
  %7 = alloca double, align 8
  %8 = alloca double, align 8
  %9 = alloca i32, align 4
  store ptr %0, ptr %4, align 8, !tbaa !3
  store i32 %1, ptr %5, align 4, !tbaa !8
  store i32 %2, ptr %6, align 4, !tbaa !8
  %10 = load ptr, ptr %4, align 8
  call void @llvm.lifetime.start.p0(i64 8, ptr %7) #3
  store double 0.000000e+00, ptr %7, align 8, !tbaa !10
  call void @llvm.lifetime.start.p0(i64 8, ptr %8) #3
  store double 1.250000e-01, ptr %8, align 8, !tbaa !10
  call void @llvm.lifetime.start.p0(i64 4, ptr %9) #3
  %11 = load i32, ptr %6, align 4, !tbaa !8
  store i32 %11, ptr %9, align 4, !tbaa !8
  br label %12

12:                                               ; preds = %35, %3
  %13 = load i32, ptr %9, align 4, !tbaa !8
  %14 = load i32, ptr %5, align 4, !tbaa !8
  %15 = icmp sle i32 %13, %14
  br i1 %15, label %17, label %16

16:                                               ; preds = %12
  call void @llvm.lifetime.end.p0(i64 4, ptr %9) #3
  br label %38

17:                                               ; preds = %12
  %18 = load i32, ptr %5, align 4, !tbaa !8
  %19 = sitofp i32 %18 to double
  %20 = load i32, ptr %9, align 4, !tbaa !8
  %21 = sitofp i32 %20 to double
  %22 = call noundef double @_ZN6NFALUT4CombEdd(double noundef %19, double noundef %21)
  %23 = load double, ptr %8, align 8, !tbaa !10
  %24 = load i32, ptr %9, align 4, !tbaa !8
  %25 = call noundef double @_ZSt3powIdiEN9__gnu_cxx11__promote_2IT_T0_NS0_9__promoteIS2_Xsr3std12__is_integerIS2_EE7__valueEE6__typeENS4_IS3_Xsr3std12__is_integerIS3_EE7__valueEE6__typeEE6__typeES2_S3_(double noundef %23, i32 noundef %24)
  %26 = fmul double %22, %25
  %27 = load double, ptr %8, align 8, !tbaa !10
  %28 = fsub double 1.000000e+00, %27
  %29 = load i32, ptr %5, align 4, !tbaa !8
  %30 = load i32, ptr %9, align 4, !tbaa !8
  %31 = sub nsw i32 %29, %30
  %32 = call noundef double @_ZSt3powIdiEN9__gnu_cxx11__promote_2IT_T0_NS0_9__promoteIS2_Xsr3std12__is_integerIS2_EE7__valueEE6__typeENS4_IS3_Xsr3std12__is_integerIS3_EE7__valueEE6__typeEE6__typeES2_S3_(double noundef %28, i32 noundef %31)
  %33 = load double, ptr %7, align 8, !tbaa !10
  %34 = call double @llvm.fmuladd.f64(double %26, double %32, double %33)
  store double %34, ptr %7, align 8, !tbaa !10
  br label %35

35:                                               ; preds = %17
  %36 = load i32, ptr %9, align 4, !tbaa !8
  %37 = add nsw i32 %36, 1
  store i32 %37, ptr %9, align 4, !tbaa !8
  br label %12, !llvm.loop !22

38:                                               ; preds = %16
  %39 = load double, ptr %7, align 8, !tbaa !10
  %40 = getelementptr inbounds nuw %class.NFALUT, ptr %10, i32 0, i32 3
  %41 = load i32, ptr %40, align 8, !tbaa !16
  %42 = sitofp i32 %41 to double
  %43 = fmul double %39, %42
  %44 = getelementptr inbounds nuw %class.NFALUT, ptr %10, i32 0, i32 3
  %45 = load i32, ptr %44, align 8, !tbaa !16
  %46 = sitofp i32 %45 to double
  %47 = fmul double %43, %46
  %48 = getelementptr inbounds nuw %class.NFALUT, ptr %10, i32 0, i32 4
  %49 = load i32, ptr %48, align 4, !tbaa !17
  %50 = sitofp i32 %49 to double
  %51 = fmul double %47, %50
  %52 = getelementptr inbounds nuw %class.NFALUT, ptr %10, i32 0, i32 4
  %53 = load i32, ptr %52, align 4, !tbaa !17
  %54 = sitofp i32 %53 to double
  %55 = fmul double %51, %54
  call void @llvm.lifetime.end.p0(i64 8, ptr %8) #3
  call void @llvm.lifetime.end.p0(i64 8, ptr %7) #3
  ret double %55
}

; Function Attrs: mustprogress uwtable
define hidden noundef zeroext i1 @_ZN6NFALUT20checkValidationByNFAEii(ptr noundef nonnull align 8 dereferenceable(32) %0, i32 noundef %1, i32 noundef %2) #4 align 2 {
  %4 = alloca i1, align 1
  %5 = alloca ptr, align 8
  %6 = alloca i32, align 4
  %7 = alloca i32, align 4
  store ptr %0, ptr %5, align 8, !tbaa !3
  store i32 %1, ptr %6, align 4, !tbaa !8
  store i32 %2, ptr %7, align 4, !tbaa !8
  %8 = load ptr, ptr %5, align 8
  %9 = load i32, ptr %6, align 4, !tbaa !8
  %10 = getelementptr inbounds nuw %class.NFALUT, ptr %8, i32 0, i32 1
  %11 = load i32, ptr %10, align 8, !tbaa !12
  %12 = icmp sge i32 %9, %11
  br i1 %12, label %13, label %18

13:                                               ; preds = %3
  %14 = load i32, ptr %6, align 4, !tbaa !8
  %15 = load i32, ptr %7, align 4, !tbaa !8
  %16 = call noundef double @_ZN6NFALUT3nfaEii(ptr noundef nonnull align 8 dereferenceable(32) %8, i32 noundef %14, i32 noundef %15)
  %17 = fcmp ole double %16, 1.000000e+00
  store i1 %17, ptr %4, align 1
  br label %27

18:                                               ; preds = %3
  %19 = load i32, ptr %7, align 4, !tbaa !8
  %20 = getelementptr inbounds nuw %class.NFALUT, ptr %8, i32 0, i32 0
  %21 = load ptr, ptr %20, align 8, !tbaa !15
  %22 = load i32, ptr %6, align 4, !tbaa !8
  %23 = sext i32 %22 to i64
  %24 = getelementptr inbounds i32, ptr %21, i64 %23
  %25 = load i32, ptr %24, align 4, !tbaa !8
  %26 = icmp sge i32 %19, %25
  store i1 %26, ptr %4, align 1
  br label %27

27:                                               ; preds = %18, %13
  %28 = load i1, ptr %4, align 1
  ret i1 %28
}