; Function Attrs: mustprogress uwtable
define hidden noundef zeroext i1 @_ZN6NFALUT20checkValidationByNFAEii(ptr noundef nonnull readonly align 8 captures(none) dereferenceable(32) %0, i32 noundef %1, i32 noundef %2) local_unnamed_addr #3 align 2 {
  %4 = getelementptr inbounds nuw i8, ptr %0, i64 8
  %5 = load i32, ptr %4, align 8, !tbaa !3
  %.not = icmp slt i32 %1, %5
  br i1 %.not, label %34, label %6

6:                                                ; preds = %3
  %.not15.i = icmp sgt i32 %2, %1
  br i1 %.not15.i, label %_ZN6NFALUT3nfaEii.exit, label %.lr.ph.i

.lr.ph.i:                                         ; preds = %6
  %7 = sitofp i32 %1 to double
  br label %8

8:                                                ; preds = %_ZN6NFALUT4CombEdd.exit.i, %.lr.ph.i
  %.017.i = phi i32 [ %2, %.lr.ph.i ], [ %22, %_ZN6NFALUT4CombEdd.exit.i ]
  %.01316.i = phi double [ 0.000000e+00, %.lr.ph.i ], [ %21, %_ZN6NFALUT4CombEdd.exit.i ]
  %9 = sitofp i32 %.017.i to double
  %10 = fcmp ogt double %9, %7
  br i1 %10, label %_ZN6NFALUT4CombEdd.exit.i, label %.preheader.i.i

.preheader.i.i:                                   ; preds = %8
  %11 = icmp slt i32 %.017.i, 1
  br i1 %11, label %_ZN6NFALUT4CombEdd.exit.i, label %.lr.ph.i.i

.lr.ph.i.i:                                       ; preds = %.preheader.i.i, %.lr.ph.i.i
  %.018.i.i = phi double [ %15, %.lr.ph.i.i ], [ 1.000000e+00, %.preheader.i.i ]
  %.01117.i.i = phi double [ %14, %.lr.ph.i.i ], [ 1.000000e+00, %.preheader.i.i ]
  %.01316.i.i = phi double [ %12, %.lr.ph.i.i ], [ %7, %.preheader.i.i ]
  %12 = fadd double %.01316.i.i, -1.000000e+00
  %13 = fmul double %.01117.i.i, %.01316.i.i
  %14 = fdiv double %13, %.018.i.i
  %15 = fadd double %.018.i.i, 1.000000e+00
  %16 = fcmp ugt double %15, %9
  br i1 %16, label %_ZN6NFALUT4CombEdd.exit.i, label %.lr.ph.i.i, !llvm.loop !16

_ZN6NFALUT4CombEdd.exit.i:                        ; preds = %.lr.ph.i.i, %.preheader.i.i, %8
  %.012.i.i = phi double [ 0.000000e+00, %8 ], [ 1.000000e+00, %.preheader.i.i ], [ %14, %.lr.ph.i.i ]
  %mul.i = fmul double %9, -3.000000e+00
  %exp2.i = tail call double @exp2(double %mul.i)
  %17 = fmul double %.012.i.i, %exp2.i
  %18 = sub nsw i32 %1, %.017.i
  %19 = sitofp i32 %18 to double
  %20 = tail call noundef double @pow(double noundef 8.750000e-01, double noundef %19) #41, !tbaa !15
  %21 = tail call double @llvm.fmuladd.f64(double %17, double %20, double %.01316.i)
  %22 = add i32 %.017.i, 1
  %exitcond.not.i = icmp eq i32 %.017.i, %1
  br i1 %exitcond.not.i, label %_ZN6NFALUT3nfaEii.exit, label %8, !llvm.loop !18

_ZN6NFALUT3nfaEii.exit:                           ; preds = %_ZN6NFALUT4CombEdd.exit.i, %6
  %.013.lcssa.i = phi double [ 0.000000e+00, %6 ], [ %21, %_ZN6NFALUT4CombEdd.exit.i ]
  %23 = getelementptr inbounds nuw i8, ptr %0, i64 24
  %24 = load i32, ptr %23, align 8, !tbaa !12
  %25 = sitofp i32 %24 to double
  %26 = fmul double %.013.lcssa.i, %25
  %27 = fmul double %26, %25
  %28 = getelementptr inbounds nuw i8, ptr %0, i64 28
  %29 = load i32, ptr %28, align 4, !tbaa !13
  %30 = sitofp i32 %29 to double
  %31 = fmul double %27, %30
  %32 = fmul double %31, %30
  %33 = fcmp ole double %32, 1.000000e+00
  br label %40

34:                                               ; preds = %3
  %35 = load ptr, ptr %0, align 8, !tbaa !11
  %36 = sext i32 %1 to i64
  %37 = getelementptr inbounds i32, ptr %35, i64 %36
  %38 = load i32, ptr %37, align 4, !tbaa !15
  %39 = icmp sge i32 %2, %38
  br label %40

40:                                               ; preds = %34, %_ZN6NFALUT3nfaEii.exit
  %.0 = phi i1 [ %33, %_ZN6NFALUT3nfaEii.exit ], [ %39, %34 ]
  ret i1 %.0
}